target datalayout = "e-m:e-p270:32:32-p271:32:32-p272:64:64-i64:64-i128:128-f80:128-n8:16:32:64-S128"
target triple = "x86_64-pc-linux-gnu"

%struct.Vec_Str_t_ = type { i32, i32, ptr }
%struct.Vec_Int_t_ = type { i32, i32, ptr }
%struct.Bac_Ntk_t_ = type { ptr, i32, i32, i32, i32, i32, i32, %struct.Vec_Int_t_, %struct.Vec_Int_t_, %struct.Vec_Int_t_, %struct.Vec_Str_t_, %struct.Vec_Int_t_, %struct.Vec_Int_t_, %struct.Vec_Int_t_, %struct.Vec_Int_t_, %struct.Vec_Int_t_, %struct.Vec_Int_t_, %struct.Vec_Int_t_ }
%struct.Bac_Man_t_ = type { ptr, ptr, ptr, ptr, i32, i32, ptr, ptr, ptr, %struct.Vec_Int_t_, %struct.Vec_Int_t_, %struct.Vec_Int_t_, %struct.Vec_Int_t_, ptr, ptr, [4 x i32], [73 x ptr], [73 x ptr] }

@.str.2 = private unnamed_addr constant [36 x i8] c"# Design \22%s\22 written by ABC on %s\0A\00", align 1
@.str.3 = private unnamed_addr constant [8 x i8] c"%s %d \0A\00", align 1
@.str.4 = private unnamed_addr constant [17 x i8] c"%s %d %d %d %d \0A\00", align 1

; Function Attrs: nounwind uwtable
define internal i32 @Vec_StrSize(ptr noundef %0) #0 {
  %2 = alloca ptr, align 8
  store ptr %0, ptr %2, align 8
  %3 = load ptr, ptr %2, align 8
  %4 = getelementptr inbounds %struct.Vec_Str_t_, ptr %3, i32 0, i32 1
  %5 = load i32, ptr %4, align 4
  ret i32 %5
}

; Function Attrs: nounwind uwtable
define internal i32 @Vec_IntSize(ptr noundef %0) #0 {
  %2 = alloca ptr, align 8
  store ptr %0, ptr %2, align 8
  %3 = load ptr, ptr %2, align 8
  %4 = getelementptr inbounds %struct.Vec_Int_t_, ptr %3, i32 0, i32 1
  %5 = load i32, ptr %4, align 4
  ret i32 %5
}

; Function Attrs: nounwind uwtable
define internal ptr @Bac_ManStr(ptr noundef %0, i32 noundef %1) #0 {
  %3 = alloca ptr, align 8
  %4 = alloca i32, align 4
  store ptr %0, ptr %3, align 8
  store i32 %1, ptr %4, align 4
  %5 = load ptr, ptr %3, align 8
  %6 = getelementptr inbounds %struct.Bac_Man_t_, ptr %5, i32 0, i32 2
  %7 = load ptr, ptr %6, align 8
  %8 = load i32, ptr %4, align 4
  %9 = call ptr @Abc_NamStr(ptr noundef %7, i32 noundef %8)
  ret ptr %9
}

; Function Attrs: nounwind uwtable
define internal i32 @Bac_NtkNameId(ptr noundef %0) #0 {
  %2 = alloca ptr, align 8
  store ptr %0, ptr %2, align 8
  %3 = load ptr, ptr %2, align 8
  %4 = getelementptr inbounds %struct.Bac_Ntk_t_, ptr %3, i32 0, i32 1
  %5 = load i32, ptr %4, align 8
  ret i32 %5
}

; Function Attrs: nounwind uwtable
define internal i32 @Bac_ManNtkIsOk(ptr noundef %0, i32 noundef %1) #0 {
  %3 = alloca ptr, align 8
  %4 = alloca i32, align 4
  store ptr %0, ptr %3, align 8
  store i32 %1, ptr %4, align 4
  %5 = load i32, ptr %4, align 4
  %6 = icmp sgt i32 %5, 0
  br i1 %6, label %7, label %12

7:                                                ; preds = %2
  %8 = load i32, ptr %4, align 4
  %9 = load ptr, ptr %3, align 8
  %10 = call i32 @Bac_ManNtkNum(ptr noundef %9)
  %11 = icmp sle i32 %8, %10
  br label %12

12:                                               ; preds = %7, %2
  %13 = phi i1 [ false, %2 ], [ %11, %7 ]
  %14 = zext i1 %13 to i32
  ret i32 %14
}

; Function Attrs: nounwind uwtable
define internal i32 @Bac_NtkInfoNum(ptr noundef %0) #0 {
  %2 = alloca ptr, align 8
  store ptr %0, ptr %2, align 8
  %3 = load ptr, ptr %2, align 8
  %4 = getelementptr inbounds %struct.Bac_Ntk_t_, ptr %3, i32 0, i32 9
  %5 = call i32 @Vec_IntSize(ptr noundef %4)
  %6 = sdiv i32 %5, 3
  ret i32 %6
}

; Function Attrs: nounwind uwtable
define internal i32 @Bac_NtkObjNum(ptr noundef %0) #0 {
  %2 = alloca ptr, align 8
  store ptr %0, ptr %2, align 8
  %3 = load ptr, ptr %2, align 8
  %4 = getelementptr inbounds %struct.Bac_Ntk_t_, ptr %3, i32 0, i32 10
  %5 = call i32 @Vec_StrSize(ptr noundef %4)
  ret i32 %5
}

; Function Attrs: nounwind uwtable
define internal i32 @Bac_NtkPoNum(ptr noundef %0) #0 {
  %2 = alloca ptr, align 8
  store ptr %0, ptr %2, align 8
  %3 = load ptr, ptr %2, align 8
  %4 = getelementptr inbounds %struct.Bac_Ntk_t_, ptr %3, i32 0, i32 8
  %5 = call i32 @Vec_IntSize(ptr noundef %4)
  ret i32 %5
}

; Function Attrs: nounwind uwtable
define internal i32 @Bac_NtkPiNum(ptr noundef %0) #0 {
  %2 = alloca ptr, align 8
  store ptr %0, ptr %2, align 8
  %3 = load ptr, ptr %2, align 8
  %4 = getelementptr inbounds %struct.Bac_Ntk_t_, ptr %3, i32 0, i32 7
  %5 = call i32 @Vec_IntSize(ptr noundef %4)
  ret i32 %5
}

; Function Attrs: nounwind uwtable
define internal ptr @Bac_NtkName(ptr noundef %0) #0 {
  %2 = alloca ptr, align 8
  store ptr %0, ptr %2, align 8
  %3 = load ptr, ptr %2, align 8
  %4 = getelementptr inbounds %struct.Bac_Ntk_t_, ptr %3, i32 0, i32 0
  %5 = load ptr, ptr %4, align 8
  %6 = load ptr, ptr %2, align 8
  %7 = call i32 @Bac_NtkNameId(ptr noundef %6)
  %8 = call ptr @Bac_ManStr(ptr noundef %5, i32 noundef %7)
  ret ptr %8
}

; Function Attrs: nounwind uwtable
define internal ptr @Bac_ManNtk(ptr noundef %0, i32 noundef %1) #0 {
  %3 = alloca ptr, align 8
  %4 = alloca i32, align 4
  store ptr %0, ptr %3, align 8
  store i32 %1, ptr %4, align 4
  %5 = load ptr, ptr %3, align 8
  %6 = load i32, ptr %4, align 4
  %7 = call i32 @Bac_ManNtkIsOk(ptr noundef %5, i32 noundef %6)
  %8 = icmp ne i32 %7, 0
  br i1 %8, label %9, label %16

9:                                                ; preds = %2
  %10 = load ptr, ptr %3, align 8
  %11 = getelementptr inbounds %struct.Bac_Man_t_, ptr %10, i32 0, i32 6
  %12 = load ptr, ptr %11, align 8
  %13 = load i32, ptr %4, align 4
  %14 = sext i32 %13 to i64
  %15 = getelementptr inbounds %struct.Bac_Ntk_t_, ptr %12, i64 %14
  br label %17

16:                                               ; preds = %2
  br label %17

17:                                               ; preds = %16, %9
  %18 = phi ptr [ %15, %9 ], [ null, %16 ]
  ret ptr %18
}

; Function Attrs: nounwind uwtable
define internal i32 @Bac_ManNtkNum(ptr noundef %0) #0 {
  %2 = alloca ptr, align 8
  store ptr %0, ptr %2, align 8
  %3 = load ptr, ptr %2, align 8
  %4 = getelementptr inbounds %struct.Bac_Man_t_, ptr %3, i32 0, i32 5
  %5 = load i32, ptr %4, align 4
  ret i32 %5
}

; Function Attrs: nounwind uwtable
define internal ptr @Bac_ManName(ptr noundef %0) #0 {
  %2 = alloca ptr, align 8
  store ptr %0, ptr %2, align 8
  %3 = load ptr, ptr %2, align 8
  %4 = getelementptr inbounds %struct.Bac_Man_t_, ptr %3, i32 0, i32 0
  %5 = load ptr, ptr %4, align 8
  ret ptr %5
}

; Function Attrs: nounwind uwtable
define void @Bac_ManWriteBacInt(ptr noundef %0, ptr noundef %1) #0 {
  %3 = alloca ptr, align 8
  %4 = alloca ptr, align 8
  %5 = alloca [1000 x i8], align 16
  %6 = alloca ptr, align 8
  %7 = alloca i32, align 4
  store ptr %0, ptr %3, align 8
  store ptr %1, ptr %4, align 8
  %8 = getelementptr inbounds [1000 x i8], ptr %5, i64 0, i64 0
  %9 = load ptr, ptr %4, align 8
  %10 = call ptr @Bac_ManName(ptr noundef %9)
  %11 = call ptr (...) @Extra_TimeStamp()
  %12 = call i32 (ptr, ptr, ...) @sprintf(ptr noundef %8, ptr noundef @.str.2, ptr noundef %10, ptr noundef %11) #11
  %13 = load ptr, ptr %3, align 8
  %14 = getelementptr inbounds [1000 x i8], ptr %5, i64 0, i64 0
  call void @Vec_StrPrintStr(ptr noundef %13, ptr noundef %14)
  %15 = getelementptr inbounds [1000 x i8], ptr %5, i64 0, i64 0
  %16 = load ptr, ptr %4, align 8
  %17 = call ptr @Bac_ManName(ptr noundef %16)
  %18 = load ptr, ptr %4, align 8
  %19 = call i32 @Bac_ManNtkNum(ptr noundef %18)
  %20 = call i32 (ptr, ptr, ...) @sprintf(ptr noundef %15, ptr noundef @.str.3, ptr noundef %17, i32 noundef %19) #11
  %21 = load ptr, ptr %3, align 8
  %22 = getelementptr inbounds [1000 x i8], ptr %5, i64 0, i64 0
  call void @Vec_StrPrintStr(ptr noundef %21, ptr noundef %22)
  store i32 1, ptr %7, align 4
  br label %23

23:                                               ; preds = %49, %2
  %24 = load i32, ptr %7, align 4
  %25 = load ptr, ptr %4, align 8
  %26 = call i32 @Bac_ManNtkNum(ptr noundef %25)
  %27 = icmp sle i32 %24, %26
  br i1 %27, label %28, label %32

28:                                               ; preds = %23
  %29 = load ptr, ptr %4, align 8
  %30 = load i32, ptr %7, align 4
  %31 = call ptr @Bac_ManNtk(ptr noundef %29, i32 noundef %30)
  store ptr %31, ptr %6, align 8
  br label %32

32:                                               ; preds = %28, %23
  %33 = phi i1 [ false, %23 ], [ true, %28 ]
  br i1 %33, label %34, label %52

34:                                               ; preds = %32
  %35 = getelementptr inbounds [1000 x i8], ptr %5, i64 0, i64 0
  %36 = load ptr, ptr %6, align 8
  %37 = call ptr @Bac_NtkName(ptr noundef %36)
  %38 = load ptr, ptr %6, align 8
  %39 = call i32 @Bac_NtkPiNum(ptr noundef %38)
  %40 = load ptr, ptr %6, align 8
  %41 = call i32 @Bac_NtkPoNum(ptr noundef %40)
  %42 = load ptr, ptr %6, align 8
  %43 = call i32 @Bac_NtkObjNum(ptr noundef %42)
  %44 = load ptr, ptr %6, align 8
  %45 = call i32 @Bac_NtkInfoNum(ptr noundef %44)
  %46 = call i32 (ptr, ptr, ...) @sprintf(ptr noundef %35, ptr noundef @.str.4, ptr noundef %37, i32 noundef %39, i32 noundef %41, i32 noundef %43, i32 noundef %45) #11
  %47 = load ptr, ptr %3, align 8
  %48 = getelementptr inbounds [1000 x i8], ptr %5, i64 0, i64 0
  call void @Vec_StrPrintStr(ptr noundef %47, ptr noundef %48)
  br label %49

49:                                               ; preds = %34
  %50 = load i32, ptr %7, align 4
  %51 = add nsw i32 %50, 1
  store i32 %51, ptr %7, align 4
  br label %23, !llvm.loop !17

52:                                               ; preds = %32
  store i32 1, ptr %7, align 4
  br label %53

53:                                               ; preds = %67, %52
  %54 = load i32, ptr %7, align 4
  %55 = load ptr, ptr %4, align 8
  %56 = call i32 @Bac_ManNtkNum(ptr noundef %55)
  %57 = icmp sle i32 %54, %56
  br i1 %57, label %58, label %62

58:                                               ; preds = %53
  %59 = load ptr, ptr %4, align 8
  %60 = load i32, ptr %7, align 4
  %61 = call ptr @Bac_ManNtk(ptr noundef %59, i32 noundef %60)
  store ptr %61, ptr %6, align 8
  br label %62

62:                                               ; preds = %58, %53
  %63 = phi i1 [ false, %53 ], [ true, %58 ]
  br i1 %63, label %64, label %70

64:                                               ; preds = %62
  %65 = load ptr, ptr %3, align 8
  %66 = load ptr, ptr %6, align 8
  call void @Bac_ManWriteBacNtk(ptr noundef %65, ptr noundef %66)
  br label %67

67:                                               ; preds = %64
  %68 = load i32, ptr %7, align 4
  %69 = add nsw i32 %68, 1
  store i32 %69, ptr %7, align 4
  br label %53, !llvm.loop !18

70:                                               ; preds = %62
  ret void
}