; Function Attrs: nounwind uwtable
define void @Bac_ManWriteBacInt(ptr noundef captures(none) %0, ptr noundef readonly captures(none) %1) local_unnamed_addr #5 {
  %3 = alloca [1000 x i8], align 16
  %.val29 = load ptr, ptr %1, align 8
  %4 = tail call ptr (...) @Extra_TimeStamp() #21
  %5 = call i32 (ptr, ptr, ...) @sprintf(ptr noundef nonnull dereferenceable(1) %3, ptr noundef nonnull dereferenceable(1) @.str.2, ptr noundef %.val29, ptr noundef %4) #21
  call fastcc void @Vec_StrPrintStr(ptr noundef %0, ptr noundef %3)
  %.val30 = load ptr, ptr %1, align 8
  %6 = getelementptr i8, ptr %1, i64 36
  %.val27 = load i32, ptr %6, align 4
  %7 = call i32 (ptr, ptr, ...) @sprintf(ptr noundef nonnull dereferenceable(1) %3, ptr noundef nonnull dereferenceable(1) @.str.3, ptr noundef %.val30, i32 noundef %.val27) #21
  call fastcc void @Vec_StrPrintStr(ptr noundef %0, ptr noundef %3)
  %.val2638 = load i32, ptr %6, align 4
  %.not39 = icmp slt i32 %.val2638, 1
  br i1 %.not39, label %.critedge2, label %Bac_ManNtk.exit.lr.ph

Bac_ManNtk.exit.lr.ph:                            ; preds = %2
  %8 = getelementptr inbounds nuw i8, ptr %1, i64 40
  br label %Bac_ManNtk.exit

.critedge.preheader:                              ; preds = %Bac_ManNtk.exit
  %9 = icmp slt i32 %.val26, 1
  br i1 %9, label %.critedge2, label %Bac_ManNtk.exit37.lr.ph

Bac_ManNtk.exit37.lr.ph:                          ; preds = %.critedge.preheader
  %10 = getelementptr inbounds nuw i8, ptr %1, i64 40
  br label %Bac_ManNtk.exit37

Bac_ManNtk.exit:                                  ; preds = %Bac_ManNtk.exit.lr.ph, %Bac_ManNtk.exit
  %indvars.iv = phi i64 [ 1, %Bac_ManNtk.exit.lr.ph ], [ %indvars.iv.next, %Bac_ManNtk.exit ]
  %11 = load ptr, ptr %8, align 8
  %12 = getelementptr inbounds nuw %struct.Bac_Ntk_t_, ptr %11, i64 %indvars.iv
  %.val31 = load ptr, ptr %12, align 8
  %13 = getelementptr i8, ptr %12, i64 8
  %.val32 = load i32, ptr %13, align 8
  %14 = getelementptr i8, ptr %.val31, i64 16
  %.val31.val = load ptr, ptr %14, align 8
  %15 = tail call ptr @Abc_NamStr(ptr noundef %.val31.val, i32 noundef %.val32) #21
  %16 = getelementptr i8, ptr %12, i64 36
  %.val33 = load i32, ptr %16, align 4
  %17 = getelementptr i8, ptr %12, i64 52
  %.val34 = load i32, ptr %17, align 4
  %18 = getelementptr i8, ptr %12, i64 84
  %.val = load i32, ptr %18, align 4
  %19 = getelementptr i8, ptr %12, i64 68
  %.val28 = load i32, ptr %19, align 4
  %20 = sdiv i32 %.val28, 3
  %21 = call i32 (ptr, ptr, ...) @sprintf(ptr noundef nonnull dereferenceable(1) %3, ptr noundef nonnull dereferenceable(1) @.str.4, ptr noundef %15, i32 noundef %.val33, i32 noundef %.val34, i32 noundef %.val, i32 noundef %20) #21
  call fastcc void @Vec_StrPrintStr(ptr noundef %0, ptr noundef %3)
  %indvars.iv.next = add nuw nsw i64 %indvars.iv, 1
  %.val26 = load i32, ptr %6, align 4
  %22 = sext i32 %.val26 to i64
  %.not.not = icmp slt i64 %indvars.iv, %22
  br i1 %.not.not, label %Bac_ManNtk.exit, label %.critedge.preheader, !llvm.loop !17

Bac_ManNtk.exit37:                                ; preds = %Bac_ManNtk.exit37.lr.ph, %Bac_ManNtk.exit37
  %indvars.iv45 = phi i64 [ 1, %Bac_ManNtk.exit37.lr.ph ], [ %indvars.iv.next46, %Bac_ManNtk.exit37 ]
  %23 = load ptr, ptr %10, align 8
  %24 = getelementptr inbounds nuw %struct.Bac_Ntk_t_, ptr %23, i64 %indvars.iv45
  tail call void @Bac_ManWriteBacNtk(ptr noundef %0, ptr noundef nonnull %24)
  %indvars.iv.next46 = add nuw nsw i64 %indvars.iv45, 1
  %.val25 = load i32, ptr %6, align 4
  %25 = sext i32 %.val25 to i64
  %.not24.not = icmp slt i64 %indvars.iv45, %25
  br i1 %.not24.not, label %Bac_ManNtk.exit37, label %.critedge2, !llvm.loop !18

.critedge2:                                       ; preds = %Bac_ManNtk.exit37, %2, %.critedge.preheader
  ret void
}